; Function Attrs: mustprogress nofree norecurse nosync nounwind willreturn memory(argmem: write) uwtable
define void @_Z15xdrstdio_createP3XDRP8_IO_FILE6xdr_op(ptr nocapture noundef writeonly %0, ptr noundef %1, i32 noundef %2) local_unnamed_addr #5 {
  store i32 %2, ptr %0, align 8
  %4 = getelementptr inbounds i8, ptr %0, i64 8
  store ptr @_ZL12xdrstdio_ops, ptr %4, align 8
  %5 = getelementptr inbounds i8, ptr %0, i64 24
  store ptr %1, ptr %5, align 8
  %6 = getelementptr inbounds i8, ptr %0, i64 40
  store i32 0, ptr %6, align 8
  %7 = getelementptr inbounds i8, ptr %0, i64 32
  store ptr null, ptr %7, align 8
  ret void
}